; Function Attrs: mustprogress uwtable
define void @_ZN6google8protobuf8internal14WireFormatLite10WriteInt32EiiPNS0_2io17CodedOutputStreamE(i32 noundef %0, i32 noundef %1, ptr noundef %2) local_unnamed_addr #3 align 2 {
  %4 = shl i32 %0, 3
  %5 = getelementptr inbounds i8, ptr %2, i64 64
  %6 = load ptr, ptr %5, align 8
  %7 = load ptr, ptr %2, align 8
  %.not.i.i.i = icmp ugt ptr %7, %6
  br i1 %.not.i.i.i, label %_ZN6google8protobuf2io19EpsCopyOutputStream11EnsureSpaceEPh.exit.i.i, label %8

8:                                                ; preds = %3
  %9 = tail call noundef ptr @_ZN6google8protobuf2io19EpsCopyOutputStream19EnsureSpaceFallbackEPh(ptr noundef nonnull align 8 dereferenceable(59) %2, ptr noundef %6)
  br label %_ZN6google8protobuf2io19EpsCopyOutputStream11EnsureSpaceEPh.exit.i.i

_ZN6google8protobuf2io19EpsCopyOutputStream11EnsureSpaceEPh.exit.i.i: ; preds = %8, %3
  %.0.i.i.i = phi ptr [ %9, %8 ], [ %6, %3 ]
  %10 = icmp ult i32 %4, 128
  %11 = trunc i32 %4 to i8
  br i1 %10, label %12, label %14

12:                                               ; preds = %_ZN6google8protobuf2io19EpsCopyOutputStream11EnsureSpaceEPh.exit.i.i
  store i8 %11, ptr %.0.i.i.i, align 1
  %13 = getelementptr inbounds i8, ptr %.0.i.i.i, i64 1
  br label %_ZN6google8protobuf2io17CodedOutputStream8WriteTagEj.exit

14:                                               ; preds = %_ZN6google8protobuf2io19EpsCopyOutputStream11EnsureSpaceEPh.exit.i.i
  %15 = or i8 %11, -128
  store i8 %15, ptr %.0.i.i.i, align 1
  %16 = lshr i32 %4, 7
  %17 = icmp ult i32 %4, 16384
  br i1 %17, label %18, label %22

18:                                               ; preds = %14
  %19 = trunc nuw nsw i32 %16 to i8
  %20 = getelementptr inbounds i8, ptr %.0.i.i.i, i64 1
  store i8 %19, ptr %20, align 1
  %21 = getelementptr inbounds i8, ptr %.0.i.i.i, i64 2
  br label %_ZN6google8protobuf2io17CodedOutputStream8WriteTagEj.exit

22:                                               ; preds = %14
  %23 = getelementptr inbounds i8, ptr %.0.i.i.i, i64 1
  br label %24

24:                                               ; preds = %24, %22
  %.023.i.i.i = phi ptr [ %23, %22 ], [ %28, %24 ]
  %.022.i.i.i = phi i32 [ %16, %22 ], [ %27, %24 ]
  %25 = trunc i32 %.022.i.i.i to i8
  %26 = or i8 %25, -128
  store i8 %26, ptr %.023.i.i.i, align 1
  %27 = lshr i32 %.022.i.i.i, 7
  %28 = getelementptr inbounds i8, ptr %.023.i.i.i, i64 1
  %29 = icmp ugt i32 %.022.i.i.i, 16383
  br i1 %29, label %24, label %30, !llvm.loop !6

30:                                               ; preds = %24
  %31 = trunc nuw nsw i32 %27 to i8
  %32 = getelementptr inbounds i8, ptr %.023.i.i.i, i64 2
  store i8 %31, ptr %28, align 1
  br label %_ZN6google8protobuf2io17CodedOutputStream8WriteTagEj.exit

_ZN6google8protobuf2io17CodedOutputStream8WriteTagEj.exit: ; preds = %12, %18, %30
  %.0.i1.i.i = phi ptr [ %13, %12 ], [ %21, %18 ], [ %32, %30 ]
  store ptr %.0.i1.i.i, ptr %5, align 8
  %33 = sext i32 %1 to i64
  %34 = load ptr, ptr %2, align 8
  %.not.i.i.i8 = icmp ugt ptr %34, %.0.i1.i.i
  br i1 %.not.i.i.i8, label %_ZN6google8protobuf2io19EpsCopyOutputStream11EnsureSpaceEPh.exit.i.i9, label %35

35:                                               ; preds = %_ZN6google8protobuf2io17CodedOutputStream8WriteTagEj.exit
  %36 = tail call noundef ptr @_ZN6google8protobuf2io19EpsCopyOutputStream19EnsureSpaceFallbackEPh(ptr noundef nonnull align 8 dereferenceable(59) %2, ptr noundef nonnull %.0.i1.i.i)
  br label %_ZN6google8protobuf2io19EpsCopyOutputStream11EnsureSpaceEPh.exit.i.i9

_ZN6google8protobuf2io19EpsCopyOutputStream11EnsureSpaceEPh.exit.i.i9: ; preds = %35, %_ZN6google8protobuf2io17CodedOutputStream8WriteTagEj.exit
  %.0.i.i.i10 = phi ptr [ %36, %35 ], [ %.0.i1.i.i, %_ZN6google8protobuf2io17CodedOutputStream8WriteTagEj.exit ]
  %37 = icmp ult i32 %1, 128
  %38 = trunc i32 %1 to i8
  br i1 %37, label %39, label %41

39:                                               ; preds = %_ZN6google8protobuf2io19EpsCopyOutputStream11EnsureSpaceEPh.exit.i.i9
  store i8 %38, ptr %.0.i.i.i10, align 1
  %40 = getelementptr inbounds i8, ptr %.0.i.i.i10, i64 1
  br label %_ZN6google8protobuf2io17CodedOutputStream25WriteVarint32SignExtendedEi.exit

41:                                               ; preds = %_ZN6google8protobuf2io19EpsCopyOutputStream11EnsureSpaceEPh.exit.i.i9
  %42 = or i8 %38, -128
  store i8 %42, ptr %.0.i.i.i10, align 1
  %43 = lshr i64 %33, 7
  %44 = icmp ult i32 %1, 16384
  br i1 %44, label %45, label %49

45:                                               ; preds = %41
  %46 = trunc nuw nsw i64 %43 to i8
  %47 = getelementptr inbounds i8, ptr %.0.i.i.i10, i64 1
  store i8 %46, ptr %47, align 1
  %48 = getelementptr inbounds i8, ptr %.0.i.i.i10, i64 2
  br label %_ZN6google8protobuf2io17CodedOutputStream25WriteVarint32SignExtendedEi.exit

49:                                               ; preds = %41
  %50 = getelementptr inbounds i8, ptr %.0.i.i.i10, i64 1
  br label %51

51:                                               ; preds = %51, %49
  %.023.i.i.i11 = phi ptr [ %50, %49 ], [ %55, %51 ]
  %.022.i.i.i12 = phi i64 [ %43, %49 ], [ %54, %51 ]
  %52 = trunc i64 %.022.i.i.i12 to i8
  %53 = or i8 %52, -128
  store i8 %53, ptr %.023.i.i.i11, align 1
  %54 = lshr i64 %.022.i.i.i12, 7
  %55 = getelementptr inbounds i8, ptr %.023.i.i.i11, i64 1
  %56 = icmp ugt i64 %.022.i.i.i12, 16383
  br i1 %56, label %51, label %57, !llvm.loop !7

57:                                               ; preds = %51
  %58 = trunc nuw nsw i64 %54 to i8
  %59 = getelementptr inbounds i8, ptr %.023.i.i.i11, i64 2
  store i8 %58, ptr %55, align 1
  br label %_ZN6google8protobuf2io17CodedOutputStream25WriteVarint32SignExtendedEi.exit

_ZN6google8protobuf2io17CodedOutputStream25WriteVarint32SignExtendedEi.exit: ; preds = %39, %45, %57
  %.0.i1.i.i13 = phi ptr [ %40, %39 ], [ %48, %45 ], [ %59, %57 ]
  store ptr %.0.i1.i.i13, ptr %5, align 8
  ret void
}